target datalayout = "e-m:e-p270:32:32-p271:32:32-p272:64:64-i64:64-i128:128-f80:128-n8:16:32:64-S128"
target triple = "x86_64-pc-linux-gnu"

; Function Attrs: nounwind uwtable
define dso_local i32 @strstart(ptr noundef %0, ptr noundef %1, ptr noundef %2) #0 {
  %4 = alloca i32, align 4
  %5 = alloca ptr, align 8
  %6 = alloca ptr, align 8
  %7 = alloca ptr, align 8
  %8 = alloca ptr, align 8
  %9 = alloca ptr, align 8
  store ptr %0, ptr %5, align 8
  store ptr %1, ptr %6, align 8
  store ptr %2, ptr %7, align 8
  %10 = load ptr, ptr %5, align 8
  store ptr %10, ptr %8, align 8
  %11 = load ptr, ptr %6, align 8
  store ptr %11, ptr %9, align 8
  br label %12

12:                                               ; preds = %26, %3
  %13 = load ptr, ptr %9, align 8
  %14 = load i8, ptr %13, align 1
  %15 = zext i8 %14 to i32
  %16 = icmp ne i32 %15, 0
  br i1 %16, label %17, label %31

17:                                               ; preds = %12
  %18 = load ptr, ptr %8, align 8
  %19 = load i8, ptr %18, align 1
  %20 = zext i8 %19 to i32
  %21 = load ptr, ptr %9, align 8
  %22 = load i8, ptr %21, align 1
  %23 = zext i8 %22 to i32
  %24 = icmp ne i32 %20, %23
  br i1 %24, label %25, label %26

25:                                               ; preds = %17
  store i32 0, ptr %4, align 4
  br label %38

26:                                               ; preds = %17
  %27 = load ptr, ptr %8, align 8
  %28 = getelementptr i8, ptr %27, i32 1
  store ptr %28, ptr %8, align 8
  %29 = load ptr, ptr %9, align 8
  %30 = getelementptr i8, ptr %29, i32 1
  store ptr %30, ptr %9, align 8
  br label %12, !llvm.loop !7

31:                                               ; preds = %12
  %32 = load ptr, ptr %7, align 8
  %33 = icmp ne ptr %32, null
  br i1 %33, label %34, label %37

34:                                               ; preds = %31
  %35 = load ptr, ptr %8, align 8
  %36 = load ptr, ptr %7, align 8
  store ptr %35, ptr %36, align 8
  br label %37

37:                                               ; preds = %34, %31
  store i32 1, ptr %4, align 4
  br label %38

38:                                               ; preds = %37, %25
  %39 = load i32, ptr %4, align 4
  ret i32 %39
}