; Function Attrs: nofree norecurse nosync nounwind memory(read, argmem: readwrite, inaccessiblemem: none) uwtable
define dso_local noundef i32 @strstart(ptr noundef %0, ptr nocapture noundef readonly %1, ptr noundef writeonly %2) local_unnamed_addr #3 {
  %4 = load i8, ptr %1, align 1
  %.not17 = icmp eq i8 %4, 0
  br i1 %.not17, label %._crit_edge, label %.lr.ph

.lr.ph:                                           ; preds = %3, %7
  %5 = phi i8 [ %10, %7 ], [ %4, %3 ]
  %.019 = phi ptr [ %9, %7 ], [ %1, %3 ]
  %.01018 = phi ptr [ %8, %7 ], [ %0, %3 ]
  %6 = load i8, ptr %.01018, align 1
  %.not15 = icmp eq i8 %6, %5
  br i1 %.not15, label %7, label %.loopexit

7:                                                ; preds = %.lr.ph
  %8 = getelementptr i8, ptr %.01018, i64 1
  %9 = getelementptr i8, ptr %.019, i64 1
  %10 = load i8, ptr %9, align 1
  %.not = icmp eq i8 %10, 0
  br i1 %.not, label %._crit_edge, label %.lr.ph, !llvm.loop !7

._crit_edge:                                      ; preds = %7, %3
  %.010.lcssa = phi ptr [ %0, %3 ], [ %8, %7 ]
  %.not14 = icmp eq ptr %2, null
  br i1 %.not14, label %.loopexit, label %11

11:                                               ; preds = %._crit_edge
  store ptr %.010.lcssa, ptr %2, align 8
  br label %.loopexit

.loopexit:                                        ; preds = %.lr.ph, %._crit_edge, %11
  %.011 = phi i32 [ 1, %11 ], [ 1, %._crit_edge ], [ 0, %.lr.ph ]
  ret i32 %.011
}